target datalayout = "e-m:e-p270:32:32-p271:32:32-p272:64:64-i64:64-i128:128-f80:128-n8:16:32:64-S128"
target triple = "x86_64-pc-linux-gnu"

%struct._Py_ext_module_loader_result = type { ptr, ptr, i32, ptr, %struct._Py_ext_module_loader_result_error }
%struct._Py_ext_module_loader_result_error = type { i32, ptr }

@.str.6 = private unnamed_addr constant [57 x i8] c"initialization of %s failed without raising an exception\00", align 1
@.str.7 = private unnamed_addr constant [49 x i8] c"initialization of %s raised unreported exception\00", align 1
@.str.8 = private unnamed_addr constant [50 x i8] c"init function of %s returned uninitialized object\00", align 1
@.str.9 = private unnamed_addr constant [48 x i8] c"initialization of %s did not return PyModuleDef\00", align 1
@.str.10 = private unnamed_addr constant [56 x i8] c"initialization of %s did not return an extension module\00", align 1
@.str.11 = private unnamed_addr constant [61 x i8] c"initialization of %s did not return a valid extension module\00", align 1
@PyExc_SystemError = external global ptr, align 8
@.str.12 = private unnamed_addr constant [39 x i8] c"loading %s failed due to init function\00", align 1

; Function Attrs: nounwind uwtable
define hidden void @_Py_ext_module_loader_result_clear(ptr noundef %0) #0 {
  %2 = alloca ptr, align 8
  %3 = alloca %struct._Py_ext_module_loader_result, align 8
  store ptr %0, ptr %2, align 8, !tbaa !43
  %4 = load ptr, ptr %2, align 8, !tbaa !43
  call void @llvm.memset.p0.i64(ptr align 8 %3, i8 0, i64 48, i1 false)
  call void @llvm.memcpy.p0.p0.i64(ptr align 8 %4, ptr align 8 %3, i64 48, i1 false), !tbaa.struct !45
  ret void
}

; Function Attrs: nounwind uwtable
define hidden void @_Py_ext_module_loader_result_apply_error(ptr noundef %0, ptr noundef %1) #0 {
  %3 = alloca ptr, align 8
  %4 = alloca ptr, align 8
  %5 = alloca %struct._Py_ext_module_loader_result_error, align 8
  %6 = alloca ptr, align 8
  %7 = alloca i32, align 4
  store ptr %0, ptr %3, align 8, !tbaa !43
  store ptr %1, ptr %4, align 8, !tbaa !26
  call void @llvm.lifetime.start.p0(i64 16, ptr %5) #7
  %8 = load ptr, ptr %3, align 8, !tbaa !43
  %9 = getelementptr inbounds nuw %struct._Py_ext_module_loader_result, ptr %8, i32 0, i32 3
  %10 = load ptr, ptr %9, align 8, !tbaa !50
  call void @llvm.memcpy.p0.p0.i64(ptr align 8 %5, ptr align 8 %10, i64 16, i1 false), !tbaa.struct !53
  %11 = load ptr, ptr %3, align 8, !tbaa !43
  %12 = getelementptr inbounds nuw %struct._Py_ext_module_loader_result, ptr %11, i32 0, i32 3
  store ptr null, ptr %12, align 8, !tbaa !50
  %13 = load ptr, ptr %3, align 8, !tbaa !43
  call void @_Py_ext_module_loader_result_clear(ptr noundef %13)
  call void @llvm.lifetime.start.p0(i64 8, ptr %6) #7
  store ptr null, ptr %6, align 8, !tbaa !26
  %14 = getelementptr inbounds nuw %struct._Py_ext_module_loader_result_error, ptr %5, i32 0, i32 0
  %15 = load i32, ptr %14, align 8, !tbaa !54
  switch i32 %15, label %22 [
    i32 0, label %26
    i32 1, label %16
    i32 2, label %17
    i32 3, label %18
    i32 4, label %19
    i32 5, label %20
    i32 6, label %21
  ]

16:                                               ; preds = %2
  store ptr @.str.6, ptr %6, align 8, !tbaa !26
  br label %26

17:                                               ; preds = %2
  store ptr @.str.7, ptr %6, align 8, !tbaa !26
  br label %26

18:                                               ; preds = %2
  store ptr @.str.8, ptr %6, align 8, !tbaa !26
  br label %26

19:                                               ; preds = %2
  store ptr @.str.9, ptr %6, align 8, !tbaa !26
  br label %26

20:                                               ; preds = %2
  store ptr @.str.10, ptr %6, align 8, !tbaa !26
  br label %26

21:                                               ; preds = %2
  store ptr @.str.11, ptr %6, align 8, !tbaa !26
  br label %26

22:                                               ; preds = %2
  %23 = load ptr, ptr @PyExc_SystemError, align 8, !tbaa !11
  %24 = load ptr, ptr %4, align 8, !tbaa !26
  %25 = call ptr (ptr, ptr, ...) @PyErr_Format(ptr noundef %23, ptr noundef @.str.12, ptr noundef %24)
  store i32 1, ptr %7, align 4
  br label %48

26:                                               ; preds = %21, %20, %19, %18, %17, %16, %2
  %27 = getelementptr inbounds nuw %struct._Py_ext_module_loader_result_error, ptr %5, i32 0, i32 1
  %28 = load ptr, ptr %27, align 8, !tbaa !55
  %29 = icmp ne ptr %28, null
  br i1 %29, label %30, label %42

30:                                               ; preds = %26
  %31 = getelementptr inbounds nuw %struct._Py_ext_module_loader_result_error, ptr %5, i32 0, i32 1
  %32 = load ptr, ptr %31, align 8, !tbaa !55
  call void @PyErr_SetRaisedException(ptr noundef %32)
  %33 = getelementptr inbounds nuw %struct._Py_ext_module_loader_result_error, ptr %5, i32 0, i32 1
  store ptr null, ptr %33, align 8, !tbaa !55
  %34 = load ptr, ptr %6, align 8, !tbaa !26
  %35 = icmp ne ptr %34, null
  br i1 %35, label %36, label %41

36:                                               ; preds = %30
  %37 = load ptr, ptr @PyExc_SystemError, align 8, !tbaa !11
  %38 = load ptr, ptr %6, align 8, !tbaa !26
  %39 = load ptr, ptr %4, align 8, !tbaa !26
  %40 = call ptr (ptr, ptr, ...) @_PyErr_FormatFromCause(ptr noundef %37, ptr noundef %38, ptr noundef %39)
  br label %41

41:                                               ; preds = %36, %30
  br label %47

42:                                               ; preds = %26
  %43 = load ptr, ptr @PyExc_SystemError, align 8, !tbaa !11
  %44 = load ptr, ptr %6, align 8, !tbaa !26
  %45 = load ptr, ptr %4, align 8, !tbaa !26
  %46 = call ptr (ptr, ptr, ...) @PyErr_Format(ptr noundef %43, ptr noundef %44, ptr noundef %45)
  br label %47

47:                                               ; preds = %42, %41
  store i32 0, ptr %7, align 4
  br label %48

48:                                               ; preds = %47, %22
  call void @llvm.lifetime.end.p0(i64 8, ptr %6) #7
  call void @llvm.lifetime.end.p0(i64 16, ptr %5) #7
  %49 = load i32, ptr %7, align 4
  switch i32 %49, label %51 [
    i32 0, label %50
    i32 1, label %50
  ]

50:                                               ; preds = %48, %48
  ret void

51:                                               ; preds = %48
  unreachable
}