; Function Attrs: nounwind uwtable
define hidden void @_Py_ext_module_loader_result_apply_error(ptr noundef captures(none) initializes((0, 24), (32, 48)) %0, ptr noundef %1) local_unnamed_addr #0 {
  %3 = getelementptr inbounds nuw i8, ptr %0, i64 24
  %4 = load ptr, ptr %3, align 8, !tbaa !34
  %.sroa.0.0.copyload = load i32, ptr %4, align 8, !tbaa !33
  %.sroa.43.0..sroa_idx = getelementptr inbounds nuw i8, ptr %4, i64 8
  %.sroa.43.0.copyload = load ptr, ptr %.sroa.43.0..sroa_idx, align 8, !tbaa !4
  tail call void @llvm.memset.p0.i64(ptr noundef nonnull align 8 dereferenceable(48) %0, i8 0, i64 48, i1 false)
  switch i32 %.sroa.0.0.copyload, label %10 [
    i32 0, label %.thread
    i32 1, label %13
    i32 2, label %5
    i32 3, label %6
    i32 4, label %7
    i32 5, label %8
    i32 6, label %9
  ]

5:                                                ; preds = %2
  br label %13

6:                                                ; preds = %2
  br label %13

7:                                                ; preds = %2
  br label %13

8:                                                ; preds = %2
  br label %13

9:                                                ; preds = %2
  br label %13

10:                                               ; preds = %2
  %11 = load ptr, ptr @PyExc_SystemError, align 8, !tbaa !4
  %12 = tail call ptr (ptr, ptr, ...) @PyErr_Format(ptr noundef %11, ptr noundef nonnull @.str.12, ptr noundef %1) #6
  br label %20

13:                                               ; preds = %2, %9, %8, %7, %6, %5
  %.0 = phi ptr [ @.str.11, %9 ], [ @.str.10, %8 ], [ @.str.9, %7 ], [ @.str.8, %6 ], [ @.str.7, %5 ], [ @.str.6, %2 ]
  %.not = icmp eq ptr %.sroa.43.0.copyload, null
  br i1 %.not, label %17, label %14

.thread:                                          ; preds = %2
  %.not14 = icmp eq ptr %.sroa.43.0.copyload, null
  br i1 %.not14, label %17, label %.thread18

.thread18:                                        ; preds = %.thread
  tail call void @PyErr_SetRaisedException(ptr noundef nonnull %.sroa.43.0.copyload) #6
  br label %20

14:                                               ; preds = %13
  tail call void @PyErr_SetRaisedException(ptr noundef nonnull %.sroa.43.0.copyload) #6
  %15 = load ptr, ptr @PyExc_SystemError, align 8, !tbaa !4
  %16 = tail call ptr (ptr, ptr, ...) @_PyErr_FormatFromCause(ptr noundef %15, ptr noundef nonnull %.0, ptr noundef %1) #6
  br label %20

17:                                               ; preds = %.thread, %13
  %.016 = phi ptr [ null, %.thread ], [ %.0, %13 ]
  %18 = load ptr, ptr @PyExc_SystemError, align 8, !tbaa !4
  %19 = tail call ptr (ptr, ptr, ...) @PyErr_Format(ptr noundef %18, ptr noundef %.016, ptr noundef %1) #6
  br label %20

20:                                               ; preds = %.thread18, %17, %14, %10
  ret void
}